; Function Attrs: mustprogress uwtable
define void @_ZN19OpenColorIO_v2_5dev19AllocationTransform7setVarsEiPKf(ptr noundef nonnull readonly align 8 captures(none) dereferenceable(16) %0, i32 noundef %1, ptr noundef readonly captures(none) %2) local_unnamed_addr #0 align 2 personality ptr @__gxx_personality_v0 {
  %4 = getelementptr inbounds nuw i8, ptr %0, i64 8
  %5 = load ptr, ptr %4, align 8, !tbaa !32
  %6 = getelementptr inbounds nuw i8, ptr %5, i64 8
  %7 = sext i32 %1 to i64
  %8 = getelementptr inbounds nuw i8, ptr %5, i64 16
  %9 = load ptr, ptr %8, align 8, !tbaa !50
  %10 = load ptr, ptr %6, align 8, !tbaa !42
  %11 = ptrtoint ptr %9 to i64
  %12 = ptrtoint ptr %10 to i64
  %13 = sub i64 %11, %12
  %14 = ashr exact i64 %13, 2
  %15 = icmp ult i64 %14, %7
  br i1 %15, label %16, label %18

16:                                               ; preds = %3
  %17 = sub nuw nsw i64 %7, %14
  tail call void @_ZNSt6vectorIfSaIfEE17_M_default_appendEm(ptr noundef nonnull align 8 dereferenceable(24) %6, i64 noundef %17)
  %.pre = load ptr, ptr %4, align 8, !tbaa !32
  %.phi.trans.insert = getelementptr inbounds nuw i8, ptr %.pre, i64 8
  %.pre3 = load ptr, ptr %.phi.trans.insert, align 8, !tbaa !51
  %.phi.trans.insert4 = getelementptr inbounds nuw i8, ptr %.pre, i64 16
  %.pre5 = load ptr, ptr %.phi.trans.insert4, align 8, !tbaa !51
  br label %_ZNSt6vectorIfSaIfEE6resizeEm.exit

18:                                               ; preds = %3
  %19 = icmp ugt i64 %14, %7
  br i1 %19, label %20, label %_ZNSt6vectorIfSaIfEE6resizeEm.exit

20:                                               ; preds = %18
  %21 = getelementptr inbounds nuw float, ptr %10, i64 %7
  %.not.i.i = icmp eq ptr %9, %21
  br i1 %.not.i.i, label %_ZNSt6vectorIfSaIfEE6resizeEm.exit, label %22

22:                                               ; preds = %20
  store ptr %21, ptr %8, align 8, !tbaa !50
  br label %_ZNSt6vectorIfSaIfEE6resizeEm.exit

_ZNSt6vectorIfSaIfEE6resizeEm.exit:               ; preds = %16, %18, %20, %22
  %23 = phi ptr [ %.pre5, %16 ], [ %9, %18 ], [ %9, %20 ], [ %21, %22 ]
  %24 = phi ptr [ %.pre3, %16 ], [ %10, %18 ], [ %10, %20 ], [ %10, %22 ]
  %25 = icmp eq ptr %24, %23
  br i1 %25, label %28, label %26

26:                                               ; preds = %_ZNSt6vectorIfSaIfEE6resizeEm.exit
  %27 = shl nsw i64 %7, 2
  tail call void @llvm.memcpy.p0.p0.i64(ptr nonnull align 4 %24, ptr align 4 %2, i64 %27, i1 false)
  br label %28

28:                                               ; preds = %26, %_ZNSt6vectorIfSaIfEE6resizeEm.exit
  ret void
}